target datalayout = "e-m:e-p270:32:32-p271:32:32-p272:64:64-i64:64-i128:128-f80:128-n8:16:32:64-S128"
target triple = "x86_64-pc-linux-gnu"

%struct.H5PL_plugin_t = type { i32, %union.H5PL_key_t, ptr }
%union.H5PL_key_t = type { %struct.H5PL_vol_key_t }
%struct.H5PL_vol_key_t = type { i32, %union.anon }
%union.anon = type { ptr }

@H5PL_init_g = external global i8, align 1
@H5_libterm_g = external global i8, align 1
@H5PL_num_plugins_g = internal global i32 0, align 4
@H5PL_cache_capacity_g = internal global i32 0, align 4
@H5PL_cache_g = internal global ptr null, align 8

; Function Attrs: nounwind uwtable
define i32 @H5PL__close_plugin_cache(ptr noundef %0) #0 {
  %2 = alloca ptr, align 8
  %3 = alloca i32, align 4
  %4 = alloca i32, align 4
  store ptr %0, ptr %2, align 8, !tbaa !16
  call void @llvm.lifetime.start.p0(i64 4, ptr %3) #9
  call void @llvm.lifetime.start.p0(i64 4, ptr %4) #9
  store i32 0, ptr %4, align 4, !tbaa !3
  %5 = load i8, ptr @H5PL_init_g, align 1, !tbaa !7, !range !9, !noundef !10
  %6 = trunc i8 %5 to i1
  br i1 %6, label %11, label %7

7:                                                ; preds = %1
  %8 = load i8, ptr @H5_libterm_g, align 1, !tbaa !7, !range !9, !noundef !10
  %9 = trunc i8 %8 to i1
  %10 = xor i1 %9, true
  br label %11

11:                                               ; preds = %7, %1
  %12 = phi i1 [ true, %1 ], [ %10, %7 ]
  %13 = xor i1 %12, true
  %14 = xor i1 %13, true
  %15 = zext i1 %14 to i32
  %16 = sext i32 %15 to i64
  %17 = call i64 @llvm.expect.i64(i64 %16, i64 1)
  %18 = icmp ne i64 %17, 0
  br i1 %18, label %19, label %45

19:                                               ; preds = %11
  %20 = load ptr, ptr @H5PL_cache_g, align 8, !tbaa !11
  %21 = icmp ne ptr %20, null
  br i1 %21, label %22, label %42

22:                                               ; preds = %19
  store i32 0, ptr %3, align 4, !tbaa !3
  br label %23

23:                                               ; preds = %35, %22
  %24 = load i32, ptr %3, align 4, !tbaa !3
  %25 = load i32, ptr @H5PL_num_plugins_g, align 4, !tbaa !3
  %26 = icmp ult i32 %24, %25
  br i1 %26, label %27, label %38

27:                                               ; preds = %23
  %28 = load ptr, ptr @H5PL_cache_g, align 8, !tbaa !11
  %29 = load i32, ptr %3, align 4, !tbaa !3
  %30 = zext i32 %29 to i64
  %31 = getelementptr inbounds nuw %struct.H5PL_plugin_t, ptr %28, i64 %30
  %32 = getelementptr inbounds nuw %struct.H5PL_plugin_t, ptr %31, i32 0, i32 2
  %33 = load ptr, ptr %32, align 8, !tbaa !18
  %34 = call i32 @H5PL__close(ptr noundef %33)
  br label %35

35:                                               ; preds = %27
  %36 = load i32, ptr %3, align 4, !tbaa !3
  %37 = add i32 %36, 1
  store i32 %37, ptr %3, align 4, !tbaa !3
  br label %23, !llvm.loop !20

38:                                               ; preds = %23
  %39 = load ptr, ptr @H5PL_cache_g, align 8, !tbaa !11
  %40 = call ptr @H5MM_xfree(ptr noundef %39)
  store ptr %40, ptr @H5PL_cache_g, align 8, !tbaa !11
  store i32 0, ptr @H5PL_num_plugins_g, align 4, !tbaa !3
  store i32 0, ptr @H5PL_cache_capacity_g, align 4, !tbaa !3
  %41 = load ptr, ptr %2, align 8, !tbaa !16
  store i8 0, ptr %41, align 1, !tbaa !7
  br label %44

42:                                               ; preds = %19
  %43 = load ptr, ptr %2, align 8, !tbaa !16
  store i8 1, ptr %43, align 1, !tbaa !7
  br label %44

44:                                               ; preds = %42, %38
  br label %45

45:                                               ; preds = %44, %11
  %46 = load i32, ptr %4, align 4, !tbaa !3
  call void @llvm.lifetime.end.p0(i64 4, ptr %4) #9
  call void @llvm.lifetime.end.p0(i64 4, ptr %3) #9
  ret i32 %46
}