; Function Attrs: nounwind uwtable
define noundef i32 @H5PL__close_plugin_cache(ptr noundef writeonly captures(none) %0) local_unnamed_addr #0 {
  %2 = load i8, ptr @H5PL_init_g, align 1, !tbaa !3, !range !7, !noundef !8
  %3 = trunc nuw i8 %2 to i1
  %4 = load i8, ptr @H5_libterm_g, align 1, !range !7
  %5 = trunc nuw i8 %4 to i1
  %6 = xor i1 %5, true
  %7 = select i1 %3, i1 true, i1 %6
  br i1 %7, label %8, label %20, !prof !9

8:                                                ; preds = %1
  %9 = load ptr, ptr @H5PL_cache_g, align 8, !tbaa !12
  %.not = icmp eq ptr %9, null
  br i1 %.not, label %.sink.split, label %.preheader

.preheader:                                       ; preds = %8
  %10 = load i32, ptr @H5PL_num_plugins_g, align 4, !tbaa !10
  %.not6 = icmp eq i32 %10, 0
  br i1 %.not6, label %._crit_edge, label %.lr.ph

.lr.ph:                                           ; preds = %.preheader, %.lr.ph
  %indvars.iv = phi i64 [ %indvars.iv.next, %.lr.ph ], [ 0, %.preheader ]
  %11 = load ptr, ptr @H5PL_cache_g, align 8, !tbaa !12
  %12 = getelementptr inbounds nuw %struct.H5PL_plugin_t, ptr %11, i64 %indvars.iv, i32 2
  %13 = load ptr, ptr %12, align 8, !tbaa !17
  %14 = tail call i32 @H5PL__close(ptr noundef %13) #8
  %indvars.iv.next = add nuw nsw i64 %indvars.iv, 1
  %15 = load i32, ptr @H5PL_num_plugins_g, align 4, !tbaa !10
  %16 = zext i32 %15 to i64
  %17 = icmp samesign ult i64 %indvars.iv.next, %16
  br i1 %17, label %.lr.ph, label %._crit_edge.loopexit, !llvm.loop !19

._crit_edge.loopexit:                             ; preds = %.lr.ph
  %.pre = load ptr, ptr @H5PL_cache_g, align 8, !tbaa !12
  br label %._crit_edge

._crit_edge:                                      ; preds = %._crit_edge.loopexit, %.preheader
  %18 = phi ptr [ %.pre, %._crit_edge.loopexit ], [ %9, %.preheader ]
  %19 = tail call ptr @H5MM_xfree(ptr noundef %18) #8
  store ptr %19, ptr @H5PL_cache_g, align 8, !tbaa !12
  store i32 0, ptr @H5PL_num_plugins_g, align 4, !tbaa !10
  store i32 0, ptr @H5PL_cache_capacity_g, align 4, !tbaa !10
  br label %.sink.split

.sink.split:                                      ; preds = %8, %._crit_edge
  %.sink = phi i8 [ 0, %._crit_edge ], [ 1, %8 ]
  store i8 %.sink, ptr %0, align 1, !tbaa !3
  br label %20

20:                                               ; preds = %.sink.split, %1
  ret i32 0
}